target datalayout = "e-m:e-p270:32:32-p271:32:32-p272:64:64-i64:64-i128:128-f80:128-n8:16:32:64-S128"
target triple = "x86_64-pc-linux-gnu"

%struct.Dar_RwrPar_t_ = type { i32, i32, i32, i32, i32, i32, i32, i32, i32, i32 }
%struct.Dar_RefPar_t_ = type { i32, i32, i32, i32, i32, i32, i32, i32 }

@.str = private unnamed_addr constant [12 x i8] c"Starting:  \00", align 1
@.str.1 = private unnamed_addr constant [12 x i8] c"Balance:   \00", align 1
@.str.2 = private unnamed_addr constant [12 x i8] c"Rewrite:   \00", align 1
@.str.3 = private unnamed_addr constant [12 x i8] c"Refactor:  \00", align 1
@.str.4 = private unnamed_addr constant [12 x i8] c"RewriteZ:  \00", align 1
@.str.5 = private unnamed_addr constant [12 x i8] c"RefactorZ: \00", align 1

; Function Attrs: nounwind uwtable
define ptr @Dar_NewCompress2(ptr noundef %0, i32 noundef %1, i32 noundef %2, i32 noundef %3, i32 noundef %4, i32 noundef %5, i32 noundef %6) #0 {
  %8 = alloca ptr, align 8
  %9 = alloca i32, align 4
  %10 = alloca i32, align 4
  %11 = alloca i32, align 4
  %12 = alloca i32, align 4
  %13 = alloca i32, align 4
  %14 = alloca i32, align 4
  %15 = alloca ptr, align 8
  %16 = alloca %struct.Dar_RwrPar_t_, align 4
  %17 = alloca ptr, align 8
  %18 = alloca %struct.Dar_RefPar_t_, align 4
  %19 = alloca ptr, align 8
  store ptr %0, ptr %8, align 8, !tbaa !3
  store i32 %1, ptr %9, align 4, !tbaa !10
  store i32 %2, ptr %10, align 4, !tbaa !10
  store i32 %3, ptr %11, align 4, !tbaa !10
  store i32 %4, ptr %12, align 4, !tbaa !10
  store i32 %5, ptr %13, align 4, !tbaa !10
  store i32 %6, ptr %14, align 4, !tbaa !10
  call void @llvm.lifetime.start.p0(i64 8, ptr %15) #9
  call void @llvm.lifetime.start.p0(i64 40, ptr %16) #9
  call void @llvm.lifetime.start.p0(i64 8, ptr %17) #9
  store ptr %16, ptr %17, align 8, !tbaa !8
  call void @llvm.lifetime.start.p0(i64 32, ptr %18) #9
  call void @llvm.lifetime.start.p0(i64 8, ptr %19) #9
  store ptr %18, ptr %19, align 8, !tbaa !26
  %20 = load ptr, ptr %17, align 8, !tbaa !8
  call void @Dar_ManDefaultRwrParams(ptr noundef %20)
  %21 = load ptr, ptr %19, align 8, !tbaa !26
  call void @Dar_ManDefaultRefParams(ptr noundef %21)
  %22 = load i32, ptr %10, align 4, !tbaa !10
  %23 = load ptr, ptr %17, align 8, !tbaa !8
  %24 = getelementptr inbounds nuw %struct.Dar_RwrPar_t_, ptr %23, i32 0, i32 4
  store i32 %22, ptr %24, align 4, !tbaa !28
  %25 = load i32, ptr %10, align 4, !tbaa !10
  %26 = load ptr, ptr %19, align 8, !tbaa !26
  %27 = getelementptr inbounds nuw %struct.Dar_RefPar_t_, ptr %26, i32 0, i32 4
  store i32 %25, ptr %27, align 4, !tbaa !30
  %28 = load i32, ptr %11, align 4, !tbaa !10
  %29 = load ptr, ptr %17, align 8, !tbaa !8
  %30 = getelementptr inbounds nuw %struct.Dar_RwrPar_t_, ptr %29, i32 0, i32 3
  store i32 %28, ptr %30, align 4, !tbaa !37
  %31 = load i32, ptr %12, align 4, !tbaa !10
  %32 = load ptr, ptr %17, align 8, !tbaa !8
  %33 = getelementptr inbounds nuw %struct.Dar_RwrPar_t_, ptr %32, i32 0, i32 6
  store i32 %31, ptr %33, align 4, !tbaa !34
  %34 = load ptr, ptr %17, align 8, !tbaa !8
  %35 = getelementptr inbounds nuw %struct.Dar_RwrPar_t_, ptr %34, i32 0, i32 8
  store i32 0, ptr %35, align 4, !tbaa !32
  %36 = load ptr, ptr %19, align 8, !tbaa !26
  %37 = getelementptr inbounds nuw %struct.Dar_RefPar_t_, ptr %36, i32 0, i32 6
  store i32 0, ptr %37, align 4, !tbaa !33
  %38 = load i32, ptr %14, align 4, !tbaa !10
  %39 = icmp ne i32 %38, 0
  br i1 %39, label %40, label %43

40:                                               ; preds = %7
  %41 = call i32 (ptr, ...) @printf(ptr noundef @.str)
  %42 = load ptr, ptr %8, align 8, !tbaa !3
  call void @Aig_ManPrintStats(ptr noundef %42)
  br label %43

43:                                               ; preds = %40, %7
  %44 = load i32, ptr %13, align 4, !tbaa !10
  %45 = icmp ne i32 %44, 0
  br i1 %45, label %71, label %46

46:                                               ; preds = %43
  %47 = load ptr, ptr %8, align 8, !tbaa !3
  %48 = load ptr, ptr %17, align 8, !tbaa !8
  %49 = call i32 @Dar_ManRewrite(ptr noundef %47, ptr noundef %48)
  %50 = load ptr, ptr %8, align 8, !tbaa !3
  store ptr %50, ptr %15, align 8, !tbaa !3
  %51 = call ptr @Aig_ManDupDfs(ptr noundef %50)
  store ptr %51, ptr %8, align 8, !tbaa !3
  %52 = load ptr, ptr %15, align 8, !tbaa !3
  call void @Aig_ManStop(ptr noundef %52)
  %53 = load i32, ptr %14, align 4, !tbaa !10
  %54 = icmp ne i32 %53, 0
  br i1 %54, label %55, label %58

55:                                               ; preds = %46
  %56 = call i32 (ptr, ...) @printf(ptr noundef @.str.2)
  %57 = load ptr, ptr %8, align 8, !tbaa !3
  call void @Aig_ManPrintStats(ptr noundef %57)
  br label %58

58:                                               ; preds = %55, %46
  %59 = load ptr, ptr %8, align 8, !tbaa !3
  %60 = load ptr, ptr %19, align 8, !tbaa !26
  %61 = call i32 @Dar_ManRefactor(ptr noundef %59, ptr noundef %60)
  %62 = load ptr, ptr %8, align 8, !tbaa !3
  store ptr %62, ptr %15, align 8, !tbaa !3
  %63 = call ptr @Aig_ManDupDfs(ptr noundef %62)
  store ptr %63, ptr %8, align 8, !tbaa !3
  %64 = load ptr, ptr %15, align 8, !tbaa !3
  call void @Aig_ManStop(ptr noundef %64)
  %65 = load i32, ptr %14, align 4, !tbaa !10
  %66 = icmp ne i32 %65, 0
  br i1 %66, label %67, label %70

67:                                               ; preds = %58
  %68 = call i32 (ptr, ...) @printf(ptr noundef @.str.3)
  %69 = load ptr, ptr %8, align 8, !tbaa !3
  call void @Aig_ManPrintStats(ptr noundef %69)
  br label %70

70:                                               ; preds = %67, %58
  br label %71

71:                                               ; preds = %70, %43
  %72 = load ptr, ptr %8, align 8, !tbaa !3
  store ptr %72, ptr %15, align 8, !tbaa !3
  %73 = load i32, ptr %10, align 4, !tbaa !10
  %74 = call ptr @Dar_ManBalance(ptr noundef %72, i32 noundef %73)
  store ptr %74, ptr %8, align 8, !tbaa !3
  %75 = load ptr, ptr %15, align 8, !tbaa !3
  call void @Aig_ManStop(ptr noundef %75)
  %76 = load i32, ptr %14, align 4, !tbaa !10
  %77 = icmp ne i32 %76, 0
  br i1 %77, label %78, label %81

78:                                               ; preds = %71
  %79 = call i32 (ptr, ...) @printf(ptr noundef @.str.1)
  %80 = load ptr, ptr %8, align 8, !tbaa !3
  call void @Aig_ManPrintStats(ptr noundef %80)
  br label %81

81:                                               ; preds = %78, %71
  %82 = load i32, ptr %13, align 4, !tbaa !10
  %83 = icmp ne i32 %82, 0
  br i1 %83, label %97, label %84

84:                                               ; preds = %81
  %85 = load ptr, ptr %8, align 8, !tbaa !3
  %86 = load ptr, ptr %17, align 8, !tbaa !8
  %87 = call i32 @Dar_ManRewrite(ptr noundef %85, ptr noundef %86)
  %88 = load ptr, ptr %8, align 8, !tbaa !3
  store ptr %88, ptr %15, align 8, !tbaa !3
  %89 = call ptr @Aig_ManDupDfs(ptr noundef %88)
  store ptr %89, ptr %8, align 8, !tbaa !3
  %90 = load ptr, ptr %15, align 8, !tbaa !3
  call void @Aig_ManStop(ptr noundef %90)
  %91 = load i32, ptr %14, align 4, !tbaa !10
  %92 = icmp ne i32 %91, 0
  br i1 %92, label %93, label %96

93:                                               ; preds = %84
  %94 = call i32 (ptr, ...) @printf(ptr noundef @.str.2)
  %95 = load ptr, ptr %8, align 8, !tbaa !3
  call void @Aig_ManPrintStats(ptr noundef %95)
  br label %96

96:                                               ; preds = %93, %84
  br label %97

97:                                               ; preds = %96, %81
  %98 = load ptr, ptr %17, align 8, !tbaa !8
  %99 = getelementptr inbounds nuw %struct.Dar_RwrPar_t_, ptr %98, i32 0, i32 5
  store i32 1, ptr %99, align 4, !tbaa !35
  %100 = load ptr, ptr %19, align 8, !tbaa !26
  %101 = getelementptr inbounds nuw %struct.Dar_RefPar_t_, ptr %100, i32 0, i32 5
  store i32 1, ptr %101, align 4, !tbaa !36
  %102 = load ptr, ptr %8, align 8, !tbaa !3
  %103 = load ptr, ptr %17, align 8, !tbaa !8
  %104 = call i32 @Dar_ManRewrite(ptr noundef %102, ptr noundef %103)
  %105 = load ptr, ptr %8, align 8, !tbaa !3
  store ptr %105, ptr %15, align 8, !tbaa !3
  %106 = call ptr @Aig_ManDupDfs(ptr noundef %105)
  store ptr %106, ptr %8, align 8, !tbaa !3
  %107 = load ptr, ptr %15, align 8, !tbaa !3
  call void @Aig_ManStop(ptr noundef %107)
  %108 = load i32, ptr %14, align 4, !tbaa !10
  %109 = icmp ne i32 %108, 0
  br i1 %109, label %110, label %113

110:                                              ; preds = %97
  %111 = call i32 (ptr, ...) @printf(ptr noundef @.str.4)
  %112 = load ptr, ptr %8, align 8, !tbaa !3
  call void @Aig_ManPrintStats(ptr noundef %112)
  br label %113

113:                                              ; preds = %110, %97
  %114 = load i32, ptr %13, align 4, !tbaa !10
  %115 = icmp ne i32 %114, 0
  br i1 %115, label %131, label %116

116:                                              ; preds = %113
  %117 = load i32, ptr %9, align 4, !tbaa !10
  %118 = icmp ne i32 %117, 0
  br i1 %118, label %119, label %130

119:                                              ; preds = %116
  %120 = load ptr, ptr %8, align 8, !tbaa !3
  store ptr %120, ptr %15, align 8, !tbaa !3
  %121 = load i32, ptr %10, align 4, !tbaa !10
  %122 = call ptr @Dar_ManBalance(ptr noundef %120, i32 noundef %121)
  store ptr %122, ptr %8, align 8, !tbaa !3
  %123 = load ptr, ptr %15, align 8, !tbaa !3
  call void @Aig_ManStop(ptr noundef %123)
  %124 = load i32, ptr %14, align 4, !tbaa !10
  %125 = icmp ne i32 %124, 0
  br i1 %125, label %126, label %129

126:                                              ; preds = %119
  %127 = call i32 (ptr, ...) @printf(ptr noundef @.str.1)
  %128 = load ptr, ptr %8, align 8, !tbaa !3
  call void @Aig_ManPrintStats(ptr noundef %128)
  br label %129

129:                                              ; preds = %126, %119
  br label %130

130:                                              ; preds = %129, %116
  br label %131

131:                                              ; preds = %130, %113
  %132 = load ptr, ptr %8, align 8, !tbaa !3
  %133 = load ptr, ptr %19, align 8, !tbaa !26
  %134 = call i32 @Dar_ManRefactor(ptr noundef %132, ptr noundef %133)
  %135 = load ptr, ptr %8, align 8, !tbaa !3
  store ptr %135, ptr %15, align 8, !tbaa !3
  %136 = call ptr @Aig_ManDupDfs(ptr noundef %135)
  store ptr %136, ptr %8, align 8, !tbaa !3
  %137 = load ptr, ptr %15, align 8, !tbaa !3
  call void @Aig_ManStop(ptr noundef %137)
  %138 = load i32, ptr %14, align 4, !tbaa !10
  %139 = icmp ne i32 %138, 0
  br i1 %139, label %140, label %143

140:                                              ; preds = %131
  %141 = call i32 (ptr, ...) @printf(ptr noundef @.str.5)
  %142 = load ptr, ptr %8, align 8, !tbaa !3
  call void @Aig_ManPrintStats(ptr noundef %142)
  br label %143

143:                                              ; preds = %140, %131
  %144 = load i32, ptr %13, align 4, !tbaa !10
  %145 = icmp ne i32 %144, 0
  br i1 %145, label %159, label %146

146:                                              ; preds = %143
  %147 = load ptr, ptr %8, align 8, !tbaa !3
  %148 = load ptr, ptr %17, align 8, !tbaa !8
  %149 = call i32 @Dar_ManRewrite(ptr noundef %147, ptr noundef %148)
  %150 = load ptr, ptr %8, align 8, !tbaa !3
  store ptr %150, ptr %15, align 8, !tbaa !3
  %151 = call ptr @Aig_ManDupDfs(ptr noundef %150)
  store ptr %151, ptr %8, align 8, !tbaa !3
  %152 = load ptr, ptr %15, align 8, !tbaa !3
  call void @Aig_ManStop(ptr noundef %152)
  %153 = load i32, ptr %14, align 4, !tbaa !10
  %154 = icmp ne i32 %153, 0
  br i1 %154, label %155, label %158

155:                                              ; preds = %146
  %156 = call i32 (ptr, ...) @printf(ptr noundef @.str.4)
  %157 = load ptr, ptr %8, align 8, !tbaa !3
  call void @Aig_ManPrintStats(ptr noundef %157)
  br label %158

158:                                              ; preds = %155, %146
  br label %159

159:                                              ; preds = %158, %143
  %160 = load i32, ptr %9, align 4, !tbaa !10
  %161 = icmp ne i32 %160, 0
  br i1 %161, label %162, label %173

162:                                              ; preds = %159
  %163 = load ptr, ptr %8, align 8, !tbaa !3
  store ptr %163, ptr %15, align 8, !tbaa !3
  %164 = load i32, ptr %10, align 4, !tbaa !10
  %165 = call ptr @Dar_ManBalance(ptr noundef %163, i32 noundef %164)
  store ptr %165, ptr %8, align 8, !tbaa !3
  %166 = load ptr, ptr %15, align 8, !tbaa !3
  call void @Aig_ManStop(ptr noundef %166)
  %167 = load i32, ptr %14, align 4, !tbaa !10
  %168 = icmp ne i32 %167, 0
  br i1 %168, label %169, label %172

169:                                              ; preds = %162
  %170 = call i32 (ptr, ...) @printf(ptr noundef @.str.1)
  %171 = load ptr, ptr %8, align 8, !tbaa !3
  call void @Aig_ManPrintStats(ptr noundef %171)
  br label %172

172:                                              ; preds = %169, %162
  br label %173

173:                                              ; preds = %172, %159
  %174 = load ptr, ptr %8, align 8, !tbaa !3
  call void @llvm.lifetime.end.p0(i64 8, ptr %19) #9
  call void @llvm.lifetime.end.p0(i64 32, ptr %18) #9
  call void @llvm.lifetime.end.p0(i64 8, ptr %17) #9
  call void @llvm.lifetime.end.p0(i64 40, ptr %16) #9
  call void @llvm.lifetime.end.p0(i64 8, ptr %15) #9
  ret ptr %174
}