; Function Attrs: nounwind uwtable
define ptr @Dar_NewCompress2(ptr noundef %0, i32 noundef %1, i32 noundef %2, i32 noundef %3, i32 noundef %4, i32 noundef %5, i32 noundef %6) local_unnamed_addr #0 {
  %8 = alloca %struct.Dar_RwrPar_t_, align 4
  %9 = alloca %struct.Dar_RefPar_t_, align 4
  call void @llvm.lifetime.start.p0(i64 40, ptr nonnull %8) #13
  call void @llvm.lifetime.start.p0(i64 32, ptr nonnull %9) #13
  call void @Dar_ManDefaultRwrParams(ptr noundef nonnull %8) #13
  call void @Dar_ManDefaultRefParams(ptr noundef nonnull %9) #13
  %10 = getelementptr inbounds nuw i8, ptr %8, i64 16
  store i32 %2, ptr %10, align 4, !tbaa !21
  %11 = getelementptr inbounds nuw i8, ptr %9, i64 16
  store i32 %2, ptr %11, align 4, !tbaa !23
  %12 = getelementptr inbounds nuw i8, ptr %8, i64 12
  store i32 %3, ptr %12, align 4, !tbaa !33
  %13 = getelementptr inbounds nuw i8, ptr %8, i64 24
  store i32 %4, ptr %13, align 4, !tbaa !30
  %14 = getelementptr inbounds nuw i8, ptr %8, i64 32
  store i32 0, ptr %14, align 4, !tbaa !25
  %15 = getelementptr inbounds nuw i8, ptr %9, i64 24
  store i32 0, ptr %15, align 4, !tbaa !26
  %.not = icmp eq i32 %6, 0
  br i1 %.not, label %18, label %16

16:                                               ; preds = %7
  %17 = call i32 (ptr, ...) @printf(ptr noundef nonnull dereferenceable(1) @.str)
  call void @Aig_ManPrintStats(ptr noundef %0) #13
  br label %18

18:                                               ; preds = %16, %7
  %.not74 = icmp eq i32 %5, 0
  br i1 %.not74, label %19, label %29

19:                                               ; preds = %18
  %20 = call i32 @Dar_ManRewrite(ptr noundef %0, ptr noundef nonnull %8) #13
  %21 = call ptr @Aig_ManDupDfs(ptr noundef %0) #13
  call void @Aig_ManStop(ptr noundef %0) #13
  br i1 %.not, label %24, label %22

22:                                               ; preds = %19
  %23 = call i32 (ptr, ...) @printf(ptr noundef nonnull dereferenceable(1) @.str.2)
  call void @Aig_ManPrintStats(ptr noundef %21) #13
  br label %24

24:                                               ; preds = %22, %19
  %25 = call i32 @Dar_ManRefactor(ptr noundef %21, ptr noundef nonnull %9) #13
  %26 = call ptr @Aig_ManDupDfs(ptr noundef %21) #13
  call void @Aig_ManStop(ptr noundef %21) #13
  br i1 %.not, label %29, label %27

27:                                               ; preds = %24
  %28 = call i32 (ptr, ...) @printf(ptr noundef nonnull dereferenceable(1) @.str.3)
  call void @Aig_ManPrintStats(ptr noundef %26) #13
  br label %29

29:                                               ; preds = %24, %27, %18
  %.0 = phi ptr [ %0, %18 ], [ %26, %27 ], [ %26, %24 ]
  %30 = call ptr @Dar_ManBalance(ptr noundef %.0, i32 noundef %2) #13
  call void @Aig_ManStop(ptr noundef %.0) #13
  br i1 %.not, label %33, label %31

31:                                               ; preds = %29
  %32 = call i32 (ptr, ...) @printf(ptr noundef nonnull dereferenceable(1) @.str.1)
  call void @Aig_ManPrintStats(ptr noundef %30) #13
  br label %33

33:                                               ; preds = %31, %29
  br i1 %.not74, label %34, label %39

34:                                               ; preds = %33
  %35 = call i32 @Dar_ManRewrite(ptr noundef %30, ptr noundef nonnull %8) #13
  %36 = call ptr @Aig_ManDupDfs(ptr noundef %30) #13
  call void @Aig_ManStop(ptr noundef %30) #13
  br i1 %.not, label %39, label %37

37:                                               ; preds = %34
  %38 = call i32 (ptr, ...) @printf(ptr noundef nonnull dereferenceable(1) @.str.2)
  call void @Aig_ManPrintStats(ptr noundef %36) #13
  br label %39

39:                                               ; preds = %34, %37, %33
  %.1 = phi ptr [ %30, %33 ], [ %36, %37 ], [ %36, %34 ]
  %40 = getelementptr inbounds nuw i8, ptr %8, i64 20
  store i32 1, ptr %40, align 4, !tbaa !31
  %41 = getelementptr inbounds nuw i8, ptr %9, i64 20
  store i32 1, ptr %41, align 4, !tbaa !32
  %42 = call i32 @Dar_ManRewrite(ptr noundef %.1, ptr noundef nonnull %8) #13
  %43 = call ptr @Aig_ManDupDfs(ptr noundef %.1) #13
  call void @Aig_ManStop(ptr noundef %.1) #13
  br i1 %.not, label %46, label %44

44:                                               ; preds = %39
  %45 = call i32 (ptr, ...) @printf(ptr noundef nonnull dereferenceable(1) @.str.4)
  call void @Aig_ManPrintStats(ptr noundef %43) #13
  br label %46

46:                                               ; preds = %44, %39
  %47 = icmp ne i32 %1, 0
  %or.cond = and i1 %47, %.not74
  br i1 %or.cond, label %48, label %52

48:                                               ; preds = %46
  %49 = call ptr @Dar_ManBalance(ptr noundef %43, i32 noundef %2) #13
  call void @Aig_ManStop(ptr noundef %43) #13
  br i1 %.not, label %52, label %50

50:                                               ; preds = %48
  %51 = call i32 (ptr, ...) @printf(ptr noundef nonnull dereferenceable(1) @.str.1)
  call void @Aig_ManPrintStats(ptr noundef %49) #13
  br label %52

52:                                               ; preds = %50, %48, %46
  %.2 = phi ptr [ %49, %50 ], [ %49, %48 ], [ %43, %46 ]
  %53 = call i32 @Dar_ManRefactor(ptr noundef %.2, ptr noundef nonnull %9) #13
  %54 = call ptr @Aig_ManDupDfs(ptr noundef %.2) #13
  call void @Aig_ManStop(ptr noundef %.2) #13
  br i1 %.not, label %57, label %55

55:                                               ; preds = %52
  %56 = call i32 (ptr, ...) @printf(ptr noundef nonnull dereferenceable(1) @.str.5)
  call void @Aig_ManPrintStats(ptr noundef %54) #13
  br label %57

57:                                               ; preds = %55, %52
  br i1 %.not74, label %58, label %63

58:                                               ; preds = %57
  %59 = call i32 @Dar_ManRewrite(ptr noundef %54, ptr noundef nonnull %8) #13
  %60 = call ptr @Aig_ManDupDfs(ptr noundef %54) #13
  call void @Aig_ManStop(ptr noundef %54) #13
  br i1 %.not, label %63, label %61

61:                                               ; preds = %58
  %62 = call i32 (ptr, ...) @printf(ptr noundef nonnull dereferenceable(1) @.str.4)
  call void @Aig_ManPrintStats(ptr noundef %60) #13
  br label %63

63:                                               ; preds = %58, %61, %57
  %.3 = phi ptr [ %54, %57 ], [ %60, %61 ], [ %60, %58 ]
  br i1 %47, label %64, label %68

64:                                               ; preds = %63
  %65 = call ptr @Dar_ManBalance(ptr noundef %.3, i32 noundef %2) #13
  call void @Aig_ManStop(ptr noundef %.3) #13
  br i1 %.not, label %68, label %66

66:                                               ; preds = %64
  %67 = call i32 (ptr, ...) @printf(ptr noundef nonnull dereferenceable(1) @.str.1)
  call void @Aig_ManPrintStats(ptr noundef %65) #13
  br label %68

68:                                               ; preds = %64, %66, %63
  %.4 = phi ptr [ %65, %66 ], [ %65, %64 ], [ %.3, %63 ]
  call void @llvm.lifetime.end.p0(i64 32, ptr nonnull %9) #13
  call void @llvm.lifetime.end.p0(i64 40, ptr nonnull %8) #13
  ret ptr %.4
}